(ccopy_reg
_reconstructor
p0
(csensor_msgs.msg._CameraInfo
CameraInfo
p1
c__builtin__
object
p2
Ntp3
Rp4
(lp5
g0
(cstd_msgs.msg._Header
Header
p6
g2
Ntp7
Rp8
(lp9
I0
ag0
(cgenpy.rostime
Time
p10
g2
Ntp11
Rp12
(lp13
I0
aI0
abaS'bumblebee'
p14
abaI768
aI1024
aS'plumb_bob'
p15
a(lp16
F-0.282203
aF0.153178
aF0.002505
aF0.000981
aF-0.027497
aa(lp17
F672.147503
aF0.0
aF530.974051
aF0.0
aF671.585207
aF391.771646
aF0.0
aF0.0
aF1.0
aa(lp18
F0.981413
aF0.01158
aF-0.191559
aF-0.01247
aF0.999916
aF-0.003439
aF0.191503
aF0.005764
aF0.981475
aa(lp19
F682.66476
aF0.0
aF736.457401
aF0.0
aF0.0
aF682.66476
aF383.276909
aF0.0
aF0.0
aF0.0
aF1.0
aF0.0
aaI1
aI1
ag0
(csensor_msgs.msg._RegionOfInterest
RegionOfInterest
p20
g2
Ntp21
Rp22
(lp23
I0
aI0
aI768
aI1024
aI00
ababg0
(g1
g2
Ntp24
Rp25
(lp26
g0
(g6
g2
Ntp27
Rp28
(lp29
I0
ag0
(g10
g2
Ntp30
Rp31
(lp32
I0
aI0
abaS'bumblebee_right'
p33
abaI768
aI1024
ag15
a(lp34
F-0.307755
aF0.202803
aF-0.000353
aF0.000299
aF-0.070954
aa(lp35
F694.704454
aF0.0
aF530.675997
aF0.0
aF693.185276
aF379.892892
aF0.0
aF0.0
aF1.0
aa(lp36
F0.980086
aF0.021078
aF-0.197451
aF-0.02016
aF0.999775
aF0.006657
aF0.197547
aF-0.002544
aF0.98029
aa(lp37
F682.66476
aF0.0
aF736.457401
aF-81.917207
aF0.0
aF682.66476
aF383.276909
aF0.0
aF0.0
aF0.0
aF1.0
aF0.0
aaI1
aI1
ag0
(g20
g2
Ntp38
Rp39
(lp40
I0
aI0
aI768
aI1024
aI00
ababtp41
.