(lp0
ccopy_reg
_reconstructor
p1
(csensor_msgs.msg._CameraInfo
CameraInfo
p2
c__builtin__
object
p3
Ntp4
Rp5
(lp6
g1
(cstd_msgs.msg._Header
Header
p7
g3
Ntp8
Rp9
(lp10
I0
ag1
(crospy.rostime
Time
p11
g3
Ntp12
Rp13
(lp14
I0
aI0
abaS'bumblebee'
p15
abaI768
aI1024
aS'rational_polynomial'
p16
a(F-0.117462215128192
F0.591104654639963
F0.00129130233655822
F0.000624335174008668
F-0.614148067095199
F0.157879153937494
F0.578989606899923
F-0.706019861436853
tp17
a(F724.211202957399
F0.0
F520.079992106399
F0.0
F722.33659180103
F385.770646649668
F0.0
F0.0
F1.0
tp18
a(F0.999955786768095
F-0.00852918138875133
F0.00395949161356701
F0.00851617926464267
F0.99995832734247
F0.00328911373819125
F-0.00398738005871024
F-0.00325524857546483
F0.999986751990735
tp19
a(F688.056915333801
F0.0
F517.926086425781
F0.0
F0.0
F688.056915333801
F397.857963562012
F0.0
F0.0
F0.0
F1.0
F0.0
tp20
aI1
aI1
ag1
(csensor_msgs.msg._RegionOfInterest
RegionOfInterest
p21
g3
Ntp22
Rp23
(lp24
I0
aI0
aI768
aI1024
aI00
ababag1
(g2
g3
Ntp25
Rp26
(lp27
g1
(g7
g3
Ntp28
Rp29
(lp30
I0
ag1
(g11
g3
Ntp31
Rp32
(lp33
I0
aI0
abaS'bumblebee_right'
p34
abaI768
aI1024
aS'rational_polynomial'
p35
a(F-0.137495745176491
F0.41769240780505
F0.000314566758137742
F-0.00139752751397475
F-0.368587446291938
F0.157159480224999
F0.329996482588276
F-0.384850511370189
tp36
a(F726.841622273803
F0.0
F510.445777415239
F0.0
F723.751200123263
F397.912544188802
F0.0
F0.0
F1.0
tp37
a(F0.999975165587368
F-0.00132729974766567
F-0.00692145099648062
F0.00130464400910182
F0.999993780378492
F-0.00327675271283727
F0.00692575718072407
F0.00326764130703142
F0.999970677773985
tp38
a(F688.056915333801
F0.0
F517.926086425781
F-82.2484420390334
F0.0
F688.056915333801
F397.857963562012
F0.0
F0.0
F0.0
F1.0
F0.0
tp39
aI1
aI1
ag1
(g21
g3
Ntp40
Rp41
(lp42
I0
aI0
aI768
aI1024
aI00
ababa.