(lp0
ccopy_reg
_reconstructor
p1
(csensor_msgs.msg._CameraInfo
CameraInfo
p2
c__builtin__
object
p3
Ntp4
Rp5
(lp6
g1
(cstd_msgs.msg._Header
Header
p7
g3
Ntp8
Rp9
(lp10
I0
ag1
(cgenpy.rostime
Time
p11
g3
Ntp12
Rp13
(lp14
I0
aI0
abaS''
p15
abaI768
aI1024
aS'plumb_bob'
p16
a(lp17
F-0.264102
aF0.130683
aF-0.001805
aF-0.000592
aI0
aa(lp18
F713.912308
aI0
aF529.054682
aI0
aF711.290292
aF405.791694
aI0
aI0
aI1
aa(lp19
F0.998872
aF0.001059
aF-0.047468
aF-0.00069
aF0.99997
aF0.007774
aF0.047474
aF-0.007732
aF0.998843
aa(lp20
F684.921914
aI0
aF577.275417
aI0
aI0
aF684.921914
aF388.084629
aI0
aI0
aI0
aI1
aI0
aaI0
aI0
ag1
(csensor_msgs.msg._RegionOfInterest
RegionOfInterest
p21
g3
Ntp22
Rp23
(lp24
I0
aI0
aI0
aI0
aI00
ababag1
(g2
g3
Ntp25
Rp26
(lp27
g1
(g7
g3
Ntp28
Rp29
(lp30
I0
ag1
(g11
g3
Ntp31
Rp32
(lp33
I0
aI0
abag15
abaI768
aI1024
aS'plumb_bob'
p34
a(lp35
F-0.296262
aF0.149756
aF-0.000805
aF0.001267
aI0
aa(lp36
F732.484513
aI0
aF522.192285
aI0
aF729.603187
aF375.185263
aI0
aI0
aI1
aa(lp37
F0.997871
aF0.007183
aF-0.064815
aF-0.007686
aF0.999942
aF-0.00751
aF0.064757
aF0.007992
aF0.997869
aa(lp38
F684.921914
aI0
aF577.275417
aF-82.097127
aI0
aF684.921914
aF388.084629
aI0
aI0
aI0
aI1
aI0
aaI0
aI0
ag1
(g21
g3
Ntp39
Rp40
(lp41
I0
aI0
aI0
aI0
aI00
ababa.