(lp0
ccopy_reg
_reconstructor
p1
(csensor_msgs.msg._CameraInfo
CameraInfo
p2
c__builtin__
object
p3
Ntp4
Rp5
(lp6
g1
(cstd_msgs.msg._Header
Header
p7
g3
Ntp8
Rp9
(lp10
I0
ag1
(crospy.rostime
Time
p11
g3
Ntp12
Rp13
(lp14
I0
aI0
abaS'/bumblebee2'
p15
abaI768
aI1024
aS'rational_polynomial'
p16
a(F-0.017447
F-0.077574
F0.000211
F0.001604
F-0.310617
F0.286659
F-0.0
F-0.405185
tp17
a(F738.34969
F0.0
F519.779917
F0.0
F737.991657
F400.147906
F0.0
F0.0
F1.0
tp18
a(F0.999739
F-0.003077
F0.02265
F0.003042
F0.999994
F0.001573
F-0.0
F-0.001503
F0.999742
tp19
a(F980.433098
F0.0
F476.934177
F0.0
F0.0
F980.433098
F365.0
F0.0
F0.0
F0.0
F1.0
F0.0
tp20
aI1
aI1
ag1
(csensor_msgs.msg._RegionOfInterest
RegionOfInterest
p21
g3
Ntp22
Rp23
(lp24
I0
aI0
aI768
aI1024
aI00
ababag1
(g2
g3
Ntp25
Rp26
(lp27
g1
(g7
g3
Ntp28
Rp29
(lp30
I0
ag1
(g11
g3
Ntp31
Rp32
(lp33
I0
aI0
abaS'/bumblebee2_right'
p34
abaI768
aI1024
aS'rational_polynomial'
p35
a(F0.198285
F0.09162
F-0.000112
F0.001418
F-0.805224
F0.508355
F0.0
F-0.97444
tp36
a(F740.934992
F0.0
F519.191161
F0.0
F741.352493
F377.618811
F0.0
F0.0
F1.0
tp37
a(F0.999889
F0.005181
F0.013939
F-0.005159
F0.999985
F-0.001574
F-0.0
F0.001502
F0.999902
tp38
a(F980.433098
F0.0
F476.934177
F-117.574994
F0.0
F980.433098
F365.643307
F0.0
F0.0
F0.0
F1.0
F0.0
tp39
aI1
aI1
ag1
(g21
g3
Ntp40
Rp41
(lp42
I0
aI0
aI768
aI1024
aI00
ababa.