(lp0
ccopy_reg
_reconstructor
p1
(csensor_msgs.msg._CameraInfo
CameraInfo
p2
c__builtin__
object
p3
Ntp4
Rp5
(lp6
g1
(cstd_msgs.msg._Header
Header
p7
g3
Ntp8
Rp9
(lp10
I0
ag1
(cgenpy.rostime
Time
p11
g3
Ntp12
Rp13
(lp14
I0
aI0
abaS'bumblebee2'
p15
abaI768
aI1024
aS'rational_polynomial'
p16
a(lp17
F-0.017447
aF-0.077574
aF0.000211
aF0.001604
aF-0.310617
aF0.286659
aF-0.186331
aF-0.405185
aa(lp18
F738.34969
aF0.0
aF519.779917
aF0.0
aF737.991657
aF400.147906
aF0.0
aF0.0
aF1.0
aa(lp19
F0.999739
aF-0.003077
aF0.02265
aF0.003042
aF0.999994
aF0.001573
aF-0.022655
aF-0.001503
aF0.999742
aa(lp20
F980.433098
aF0.0
aF476.934177
aF0.0
aF0.0
aF980.433098
aF365.643307
aF0.0
aF0.0
aF0.0
aF1.0
aF0.0
aaI0
aI0
ag1
(csensor_msgs.msg._RegionOfInterest
RegionOfInterest
p21
g3
Ntp22
Rp23
(lp24
I0
aI0
aI0
aI0
aI00
ababag1
(g2
g3
Ntp25
Rp26
(lp27
g1
(g7
g3
Ntp28
Rp29
(lp30
I0
ag1
(g11
g3
Ntp31
Rp32
(lp33
I0
aI0
abaS'bumblebee2_right'
p34
abaI768
aI1024
aS'rational_polynomial'
p35
a(lp36
F0.198285
aF0.09162
aF-0.000112
aF0.001418
aF-0.805224
aF0.508355
aF0.064868
aF-0.97444
aa(lp37
F740.934992
aF0.0
aF519.191161
aF0.0
aF741.352493
aF377.618811
aF0.0
aF0.0
aF1.0
aa(lp38
F0.999889
aF0.005181
aF0.013939
aF-0.005159
aF0.999985
aF-0.001574
aF-0.013947
aF0.001502
aF0.999902
aa(lp39
F980.433098
aF0.0
aF476.934177
aF-117.574994
aF0.0
aF980.433098
aF365.643307
aF0.0
aF0.0
aF0.0
aF1.0
aF0.0
aaI0
aI0
ag1
(g21
g3
Ntp40
Rp41
(lp42
I0
aI0
aI0
aI0
aI00
ababa.