ccopy_reg
_reconstructor
p0
(csensor_msgs.msg._CameraInfo
CameraInfo
p1
c__builtin__
object
p2
Ntp3
Rp4
(lp5
g0
(cstd_msgs.msg._Header
Header
p6
g2
Ntp7
Rp8
(lp9
I1844
ag0
(cgenpy.rostime
Time
p10
g2
Ntp11
Rp12
(lp13
I1371723193
aI858235731
abaS'/camera'
p14
abaI540
aI720
aS'plumb_bob'
p15
a(F-0.493339
F0.314037
F-0.002524
F0.006195
F0.0
tp16
a(F737.250777
F0.0
F339.642299
F0.0
F740.43212
F273.090231
F0.0
F0.0
F1.0
tp17
a(F1.0
F0.0
F0.0
F0.0
F1.0
F0.0
F0.0
F0.0
F1.0
tp18
a(F737.250777
F0.0
F339.642299
F0.0
F0.0
F740.43212
F273.090231
F0.0
F0.0
F0.0
F1.0
F0.0
tp19
aI0
aI0
ag0
(csensor_msgs.msg._RegionOfInterest
RegionOfInterest
p20
g2
Ntp21
Rp22
(lp23
I0
aI0
aI0
aI0
aI00
abab.
