(lp0
ccopy_reg
_reconstructor
p1
(csensor_msgs.msg._CameraInfo
CameraInfo
p2
c__builtin__
object
p3
Ntp4
Rp5
(lp6
g1
(cstd_msgs.msg._Header
Header
p7
g3
Ntp8
Rp9
(lp10
I1075
ag1
(cgenpy.rostime
Time
p11
g3
Ntp12
Rp13
(lp14
I1352579388
aI207389878
abaS'stereo_front'
p15
abaI480
aI640
aS'plumb_bob'
p16
a(F0.0
F0.0
F0.0
F0.0
tp17
a(F515.9715898970367
F0.0
F320.0
F0.0
F514.6816609222941
F240.0
F0.0
F0.0
F1.0
tp18
a(F1.0
F0.0
F0.0
F0.0
F1.0
F0.0
F0.0
F0.0
F1.0
tp19
a(F515.9715898970367
F0.0
F320.0
F-0.0
F0.0
F514.6816609222941
F240.0
F0.0
F0.0
F0.0
F1.0
F0.0
tp20
aI0
aI0
ag1
(csensor_msgs.msg._RegionOfInterest
RegionOfInterest
p21
g3
Ntp22
Rp23
(lp24
I0
aI0
aI480
aI640
aI00
ababag1
(g2
g3
Ntp25
Rp26
(lp27
g1
(g7
g3
Ntp28
Rp29
(lp30
I6636
ag1
(g11
g3
Ntp31
Rp32
(lp33
I1352579942
aI936997897
abaS'stereo_front_right'
p34
abaI480
aI640
aS'plumb_bob'
p35
a(F0.0
F0.0
F0.0
F0.0
tp36
a(F515.9715898970367
F0.0
F320.0
F0.0
F514.6816609222941
F240.0
F0.0
F0.0
F1.0
tp37
a(F1.0
F0.0
F0.0
F0.0
F1.0
F0.0
F0.0
F0.0
F1.0
tp38
a(F515.9715898970367
F0.0
F320.0
F-61.916590787644395
F0.0
F514.6816609222941
F240.0
F0.0
F0.0
F0.0
F1.0
F0.0
tp39
aI0
aI0
ag1
(g21
g3
Ntp40
Rp41
(lp42
I0
aI0
aI480
aI640
aI00
ababa.